; Function Attrs: mustprogress nofree nosync nounwind willreturn memory(read, inaccessiblemem: none) uwtable
define dso_local noundef i32 @_ZNK4llvm4Type19getScalarSizeInBitsEv(ptr noundef nonnull readonly align 8 captures(none) dereferenceable(24) %0) local_unnamed_addr #5 align 2 {
  %2 = getelementptr inbounds nuw i8, ptr %0, i64 8
  %3 = load i32, ptr %2, align 8
  %4 = and i32 %3, 255
  %5 = add nsw i32 %4, -17
  %spec.select.i.i = icmp ult i32 %5, 2
  br i1 %spec.select.i.i, label %6, label %_ZNK4llvm4Type13getScalarTypeEv.exit

6:                                                ; preds = %1
  %7 = getelementptr inbounds nuw i8, ptr %0, i64 16
  %8 = load ptr, ptr %7, align 8
  %9 = load ptr, ptr %8, align 8
  br label %_ZNK4llvm4Type13getScalarTypeEv.exit

_ZNK4llvm4Type13getScalarTypeEv.exit:             ; preds = %1, %6
  %.0.i = phi ptr [ %9, %6 ], [ %0, %1 ]
  %10 = tail call { i64, i8 } @_ZNK4llvm4Type22getPrimitiveSizeInBitsEv(ptr noundef nonnull align 8 dereferenceable(24) %.0.i) #23
  %.fca.0.extract = extractvalue { i64, i8 } %10, 0
  %11 = trunc i64 %.fca.0.extract to i32
  ret i32 %11
}